Certificate:
    Data:
        Version: 3 (0x2)
        Serial Number:
            dc:b4:fc:34:1d:3c:b3:c7:4f:ad:d4:5c:37:8b:3c:51
        Signature Algorithm: ecdsa-with-SHA512
        Issuer: CN=Easy-RSA CA
        Validity
            Not Before: Jun 17 20:43:17 2022 GMT
            Not After : Sep 19 20:43:17 2024 GMT
        Subject: CN=localhost
        Subject Public Key Info:
            Public Key Algorithm: id-ecPublicKey
                Public-Key: (384 bit)
                pub:
                    04:2d:b3:ce:e2:5e:2d:fc:73:57:f5:48:df:ef:b1:
                    92:7e:4c:48:f1:75:0a:21:41:5d:73:8c:f5:dc:e8:
                    55:3b:41:f6:97:31:c3:0e:88:8d:0e:db:ce:e1:b3:
                    02:56:9b:ff:49:84:1d:bf:09:51:8a:43:98:64:1f:
                    5e:76:f1:a5:bd:64:b7:32:04:57:9c:7c:45:95:48:
                    f9:43:47:1a:65:1a:51:0e:a6:19:b5:be:30:3b:79:
                    ae:af:92:02:90:2d:4f
                ASN1 OID: secp384r1
                NIST CURVE: P-384
        X509v3 extensions:
            X509v3 Basic Constraints: 
                CA:FALSE
            X509v3 Subject Key Identifier: 
                57:F6:43:F0:0B:85:D6:97:4A:53:B1:47:43:33:F0:FB:80:C2:23:2D
            X509v3 Authority Key Identifier: 
                keyid:FD:DE:2C:FF:99:17:15:3F:03:AB:3C:C3:CA:A7:F9:CB:2F:4D:85:9F
                DirName:/CN=Easy-RSA CA
                serial:68:43:7F:36:88:B7:1D:56:7A:A2:DF:FF:C6:8F:DE:1D:33:BE:30:5E

            X509v3 Extended Key Usage: 
                TLS Web Server Authentication
            X509v3 Key Usage: 
                Digital Signature, Key Encipherment
            X509v3 Subject Alternative Name: 
                DNS:localhost
    Signature Algorithm: ecdsa-with-SHA512
         30:65:02:30:1f:f5:10:17:76:c6:f8:bc:2a:22:af:84:a3:06:
         71:45:b8:cd:3d:0f:e7:32:39:9f:cb:20:9b:e0:ca:b2:50:d3:
         44:2d:dc:ad:8f:5e:cf:f6:b1:70:a7:30:ed:ba:87:74:02:31:
         00:82:62:2e:8a:fc:8e:5e:f4:a0:92:ed:64:ad:93:17:e6:f8:
         83:04:8e:18:53:95:8f:e3:1f:28:83:db:c5:a2:7d:3f:6a:54:
         75:86:7c:4d:6b:91:85:b8:82:53:b7:70:0a
-----BEGIN CERTIFICATE-----
MIICHzCCAaWgAwIBAgIRANy0/DQdPLPHT63UXDeLPFEwCgYIKoZIzj0EAwQwFjEU
MBIGA1UEAwwLRWFzeS1SU0EgQ0EwHhcNMjIwNjE3MjA0MzE3WhcNMjQwOTE5MjA0
MzE3WjAUMRIwEAYDVQQDDAlsb2NhbGhvc3QwdjAQBgcqhkjOPQIBBgUrgQQAIgNi
AAQts87iXi38c1f1SN/vsZJ+TEjxdQohQV1zjPXc6FU7QfaXMcMOiI0O287hswJW
m/9JhB2/CVGKQ5hkH1528aW9ZLcyBFecfEWVSPlDRxplGlEOphm1vjA7ea6vkgKQ
LU+jgbgwgbUwCQYDVR0TBAIwADAdBgNVHQ4EFgQUV/ZD8AuF1pdKU7FHQzPw+4DC
Iy0wUQYDVR0jBEowSIAU/d4s/5kXFT8DqzzDyqf5yy9NhZ+hGqQYMBYxFDASBgNV
BAMMC0Vhc3ktUlNBIENBghRoQ382iLcdVnqi3//Gj94dM74wXjATBgNVHSUEDDAK
BggrBgEFBQcDATALBgNVHQ8EBAMCBaAwFAYDVR0RBA0wC4IJbG9jYWxob3N0MAoG
CCqGSM49BAMEA2gAMGUCMB/1EBd2xvi8KiKvhKMGcUW4zT0P5zI5n8sgm+DKslDT
RC3crY9ez/axcKcw7bqHdAIxAIJiLor8jl70oJLtZK2TF+b4gwSOGFOVj+MfKIPb
xaJ9P2pUdYZ8TWuRhbiCU7dwCg==
-----END CERTIFICATE-----
